#include <math.h>
#include <stdio.h>
#include <stdlib.h>
#include <string.h>

void main()
{
int i,n,m,a[100],*p;
scanf("%d%d",&n,&m);
for(i=0;i<n;i++)
scanf("%d",&a[i]);


for(p=a+m+n;p>=a+m;p--)
*p=*(p-m);

for(p=a+m-1;p>=a;p--)
*p=*(p+n);

for(i=0;i<n-1;i++)
printf("%d ",a[i]);
printf("%d",a[n-1]);
}