; ModuleID = '52/293.c'
source_filename = "52/293.c"
target datalayout = "e-m:e-p270:32:32-p271:32:32-p272:64:64-i64:64-f80:128-n8:16:32:64-S128"
target triple = "x86_64-pc-linux-gnu"

@.str = private unnamed_addr constant [5 x i8] c"%d%d\00", align 1
@.str.1 = private unnamed_addr constant [3 x i8] c"%d\00", align 1
@.str.2 = private unnamed_addr constant [4 x i8] c"%d \00", align 1

; Function Attrs: noinline nounwind uwtable
define dso_local void @main() #0 {
  %1 = alloca i32, align 4
  %2 = alloca i32, align 4
  %3 = alloca i32, align 4
  %4 = alloca [100 x i32], align 16
  %5 = alloca i32*, align 8
  %6 = call i32 (i8*, ...) @__isoc99_scanf(i8* getelementptr inbounds ([5 x i8], [5 x i8]* @.str, i64 0, i64 0), i32* %2, i32* %3)
  store i32 0, i32* %1, align 4
  br label %7

7:                                                ; preds = %16, %0
  %8 = load i32, i32* %1, align 4
  %9 = load i32, i32* %2, align 4
  %10 = icmp slt i32 %8, %9
  br i1 %10, label %11, label %19

11:                                               ; preds = %7
  %12 = load i32, i32* %1, align 4
  %13 = sext i32 %12 to i64
  %14 = getelementptr inbounds [100 x i32], [100 x i32]* %4, i64 0, i64 %13
  %15 = call i32 (i8*, ...) @__isoc99_scanf(i8* getelementptr inbounds ([3 x i8], [3 x i8]* @.str.1, i64 0, i64 0), i32* %14)
  br label %16

16:                                               ; preds = %11
  %17 = load i32, i32* %1, align 4
  %18 = add nsw i32 %17, 1
  store i32 %18, i32* %1, align 4
  br label %7

19:                                               ; preds = %7
  %20 = getelementptr inbounds [100 x i32], [100 x i32]* %4, i64 0, i64 0
  %21 = load i32, i32* %3, align 4
  %22 = sext i32 %21 to i64
  %23 = getelementptr inbounds i32, i32* %20, i64 %22
  %24 = load i32, i32* %2, align 4
  %25 = sext i32 %24 to i64
  %26 = getelementptr inbounds i32, i32* %23, i64 %25
  store i32* %26, i32** %5, align 8
  br label %27

27:                                               ; preds = %42, %19
  %28 = load i32*, i32** %5, align 8
  %29 = getelementptr inbounds [100 x i32], [100 x i32]* %4, i64 0, i64 0
  %30 = load i32, i32* %3, align 4
  %31 = sext i32 %30 to i64
  %32 = getelementptr inbounds i32, i32* %29, i64 %31
  %33 = icmp uge i32* %28, %32
  br i1 %33, label %34, label %45

34:                                               ; preds = %27
  %35 = load i32*, i32** %5, align 8
  %36 = load i32, i32* %3, align 4
  %37 = sext i32 %36 to i64
  %38 = sub i64 0, %37
  %39 = getelementptr inbounds i32, i32* %35, i64 %38
  %40 = load i32, i32* %39, align 4
  %41 = load i32*, i32** %5, align 8
  store i32 %40, i32* %41, align 4
  br label %42

42:                                               ; preds = %34
  %43 = load i32*, i32** %5, align 8
  %44 = getelementptr inbounds i32, i32* %43, i32 -1
  store i32* %44, i32** %5, align 8
  br label %27

45:                                               ; preds = %27
  %46 = getelementptr inbounds [100 x i32], [100 x i32]* %4, i64 0, i64 0
  %47 = load i32, i32* %3, align 4
  %48 = sext i32 %47 to i64
  %49 = getelementptr inbounds i32, i32* %46, i64 %48
  %50 = getelementptr inbounds i32, i32* %49, i64 -1
  store i32* %50, i32** %5, align 8
  br label %51

51:                                               ; preds = %62, %45
  %52 = load i32*, i32** %5, align 8
  %53 = getelementptr inbounds [100 x i32], [100 x i32]* %4, i64 0, i64 0
  %54 = icmp uge i32* %52, %53
  br i1 %54, label %55, label %65

55:                                               ; preds = %51
  %56 = load i32*, i32** %5, align 8
  %57 = load i32, i32* %2, align 4
  %58 = sext i32 %57 to i64
  %59 = getelementptr inbounds i32, i32* %56, i64 %58
  %60 = load i32, i32* %59, align 4
  %61 = load i32*, i32** %5, align 8
  store i32 %60, i32* %61, align 4
  br label %62

62:                                               ; preds = %55
  %63 = load i32*, i32** %5, align 8
  %64 = getelementptr inbounds i32, i32* %63, i32 -1
  store i32* %64, i32** %5, align 8
  br label %51

65:                                               ; preds = %51
  store i32 0, i32* %1, align 4
  br label %66

66:                                               ; preds = %77, %65
  %67 = load i32, i32* %1, align 4
  %68 = load i32, i32* %2, align 4
  %69 = sub nsw i32 %68, 1
  %70 = icmp slt i32 %67, %69
  br i1 %70, label %71, label %80

71:                                               ; preds = %66
  %72 = load i32, i32* %1, align 4
  %73 = sext i32 %72 to i64
  %74 = getelementptr inbounds [100 x i32], [100 x i32]* %4, i64 0, i64 %73
  %75 = load i32, i32* %74, align 4
  %76 = call i32 (i8*, ...) @printf(i8* getelementptr inbounds ([4 x i8], [4 x i8]* @.str.2, i64 0, i64 0), i32 %75)
  br label %77

77:                                               ; preds = %71
  %78 = load i32, i32* %1, align 4
  %79 = add nsw i32 %78, 1
  store i32 %79, i32* %1, align 4
  br label %66

80:                                               ; preds = %66
  %81 = load i32, i32* %2, align 4
  %82 = sub nsw i32 %81, 1
  %83 = sext i32 %82 to i64
  %84 = getelementptr inbounds [100 x i32], [100 x i32]* %4, i64 0, i64 %83
  %85 = load i32, i32* %84, align 4
  %86 = call i32 (i8*, ...) @printf(i8* getelementptr inbounds ([3 x i8], [3 x i8]* @.str.1, i64 0, i64 0), i32 %85)
  ret void
}

declare dso_local i32 @__isoc99_scanf(i8*, ...) #1

declare dso_local i32 @printf(i8*, ...) #1


!llvm.module.flags = !{!0}
!llvm.ident = !{!1}

!0 = !{i32 1, !"wchar_size", i32 4}
!1 = !{!"clang version 10.0.0-4ubuntu1 "}
